; Function Attrs: mustprogress nofree norecurse nosync nounwind willreturn memory(argmem: read) uwtable
define range(i32 -173, 8) i32 @wolfSSL_GetHmacType(ptr noundef readonly captures(address_is_null) %0) local_unnamed_addr #7 {
  %2 = icmp eq ptr %0, null
  br i1 %2, label %wolfSSL_GetHmacType_ex.exit, label %3

3:                                                ; preds = %1
  %4 = getelementptr inbounds nuw i8, ptr %0, i64 724
  %5 = load i8, ptr %4, align 2, !tbaa !74
  %switch.tableidx = add i8 %5, -1
  %6 = icmp ult i8 %switch.tableidx, 5
  br i1 %6, label %switch.lookup, label %wolfSSL_GetHmacType_ex.exit

switch.lookup:                                    ; preds = %3
  %7 = zext nneg i8 %switch.tableidx to i64
  %switch.gep = getelementptr inbounds nuw [5 x i32], ptr @switch.table.TLS_hmac, i64 0, i64 %7
  %switch.load = load i32, ptr %switch.gep, align 4
  br label %wolfSSL_GetHmacType_ex.exit

wolfSSL_GetHmacType_ex.exit:                      ; preds = %3, %switch.lookup, %1
  %.0 = phi i32 [ -173, %1 ], [ %switch.load, %switch.lookup ], [ -1, %3 ]
  ret i32 %.0
}